target datalayout = "e-m:e-p270:32:32-p271:32:32-p272:64:64-i64:64-i128:128-f80:128-n8:16:32:64-S128"
target triple = "x86_64-pc-linux-gnu"

%class.OopHandle = type { ptr }
%class.OopClosure = type { ptr }
%class.ShenandoahInitMarkRootsClosure = type { %class.OopClosure, ptr, ptr }
%class.ShenandoahSTWMark = type <{ %class.ShenandoahMark, %class.ShenandoahSTWRootScanner, %class.TaskTerminator, i8, [7 x i8] }>
%class.ShenandoahMark = type { ptr }
%class.ShenandoahSTWRootScanner = type <{ %class.ShenandoahRootProcessor, %class.ShenandoahThreadRoots, %class.ShenandoahCodeCacheRoots, %class.ShenandoahClassLoaderDataRoots, %class.ShenandoahVMRoots, i8, [7 x i8] }>
%class.ShenandoahRootProcessor = type { ptr, %class.ShenandoahGCWorkerPhase }
%class.ShenandoahGCWorkerPhase = type <{ ptr, i32, [4 x i8] }>
%class.ShenandoahThreadRoots = type <{ i32, i8, [3 x i8] }>
%class.ShenandoahCodeCacheRoots = type { i32, %class.ShenandoahCodeRootsIterator }
%class.ShenandoahCodeRootsIterator = type { ptr }
%class.ShenandoahClassLoaderDataRoots = type { %struct.ShenandoahSharedSemaphore, i32 }
%struct.ShenandoahSharedSemaphore = type { [64 x i8], i8, [64 x i8] }
%class.ShenandoahVMRoots = type <{ %class.OopStorageSetStrongParState, i32, [4 x i8] }>
%class.OopStorageSetStrongParState = type { %class.OopStorageSetParState }
%class.OopStorageSetParState = type { %struct.ValueObjArray }
%struct.ValueObjArray = type { [5 x ptr], %class.ValueObjBlock }
%class.ValueObjBlock = type { %"class.OopStorage::ParState", %class.ValueObjBlock.0 }
%"class.OopStorage::ParState" = type { %"class.OopStorage::BasicParState" }
%"class.OopStorage::BasicParState" = type { ptr, ptr, i64, i64, i32, i8, i64 }
%class.ValueObjBlock.0 = type { %"class.OopStorage::ParState", %class.ValueObjBlock.1 }
%class.ValueObjBlock.1 = type { %"class.OopStorage::ParState", %class.ValueObjBlock.2 }
%class.ValueObjBlock.2 = type { %"class.OopStorage::ParState", %class.ValueObjBlock.3 }
%class.ValueObjBlock.3 = type <{ %"class.OopStorage::ParState", %class.ValueObjBlock.4, [7 x i8] }>
%class.ValueObjBlock.4 = type { i8 }
%class.TaskTerminator = type { i32, ptr, [128 x i8], i32, [124 x i8], %class.Monitor, ptr }
%class.Monitor = type { %class.Mutex }
%class.Mutex = type { ptr, %class.PlatformMonitor, ptr }
%class.PlatformMonitor = type { %class.PlatformMutex, %union.pthread_cond_t }
%class.PlatformMutex = type { %union.pthread_mutex_t }
%union.pthread_mutex_t = type { %struct.__pthread_mutex_s }
%struct.__pthread_mutex_s = type { i32, i32, i32, i32, i32, i16, i16, %struct.__pthread_internal_list }
%struct.__pthread_internal_list = type { ptr, ptr }
%union.pthread_cond_t = type { %struct.__pthread_cond_s }
%struct.__pthread_cond_s = type { %union.__atomic_wide_counter, %union.__atomic_wide_counter, [2 x i32], [2 x i32], i32, i32, [2 x i32] }
%union.__atomic_wide_counter = type { i64 }
%class.ShenandoahHeap = type <{ %class.CollectedHeap, %class.ShenandoahSpaceInfo, %class.ShenandoahLock, i64, i64, i64, [64 x i8], i64, i64, i64, [64 x i8], i32, [4 x i8], ptr, ptr, %class.MemRegion, i8, [7 x i8], i64, ptr, %class.ShenandoahRegionIterator, i8, %struct.ShenandoahSharedBitmap, %struct.ShenandoahSharedFlag, %struct.ShenandoahSharedFlag, %struct.ShenandoahSharedFlag, %struct.ShenandoahSharedFlag, %struct.ShenandoahSharedFlag, i8, i64, %struct.ShenandoahSharedEnumFlag, [7 x i8], ptr, ptr, ptr, ptr, ptr, ptr, ptr, ptr, ptr, ptr, %class.GCMemoryManager, %class.GCMemoryManager, ptr, i32, [4 x i8], ptr, %struct.ShenandoahSharedFlag, %class.ShenandoahUnload, [6 x i8], ptr, %class.MemRegion, %class.MemRegion, %class.MarkBitMap, %class.MarkBitMap, i64, i64, i64, i64, i64, i8, i8, [6 x i8], ptr, ptr, %class.ShenandoahEvacOOMHandler, %struct.ShenandoahSharedFlag, [7 x i8] }>
%class.CollectedHeap = type { ptr, ptr, i64, i64, %class.SoftRefPolicy, %class.MemRegion, i8, i64, i32, i32, i32, i32, ptr, ptr }
%class.SoftRefPolicy = type { i8, i8 }
%class.ShenandoahSpaceInfo = type { ptr }
%class.ShenandoahLock = type { [64 x i8], i32, [64 x i8], ptr, [64 x i8] }
%class.ShenandoahRegionIterator = type { ptr, [64 x i8], i64, [64 x i8] }
%struct.ShenandoahSharedBitmap = type { [64 x i8], i8, [64 x i8] }
%struct.ShenandoahSharedEnumFlag = type { [64 x i8], i8, [64 x i8] }
%class.GCMemoryManager = type <{ %class.MemoryManager.base, [7 x i8], i64, %class.elapsedTimer, ptr, ptr, ptr, i32, i8, [10 x i8], i8 }>
%class.MemoryManager.base = type <{ ptr, [10 x ptr], i32, [4 x i8], ptr, %class.OopHandle, i8 }>
%class.elapsedTimer = type <{ i64, i64, i8, [7 x i8] }>
%class.ShenandoahUnload = type { i8 }
%class.MemRegion = type { ptr, i64 }
%class.MarkBitMap = type { ptr, %class.MemRegion, i32, %class.BitMapView }
%class.BitMapView = type { %class.BitMap }
%class.BitMap = type { ptr, i64 }
%class.ShenandoahEvacOOMHandler = type { i32, [64 x i8], ptr }
%struct.ShenandoahSharedFlag = type { [64 x i8], i8, [64 x i8] }
%class.GenericTaskQueueSet = type { %class.TaskQueueSetSuperImpl, i32, ptr }
%class.TaskQueueSetSuperImpl = type { %class.TaskQueueSetSuper }
%class.TaskQueueSetSuper = type { ptr }

@_ZN8Universe14_collectedHeapE = external global ptr, align 8
@_ZTV10OopClosure = linkonce_odr hidden unnamed_addr constant { [4 x ptr] } { [4 x ptr] [ptr null, ptr null, ptr @__cxa_pure_virtual, ptr @__cxa_pure_virtual] }, comdat, align 8

; Function Attrs: mustprogress nounwind uwtable
define linkonce_odr hidden noundef ptr @_ZN8Universe4heapEv() #1 comdat align 2 {
  %1 = load ptr, ptr @_ZN8Universe14_collectedHeapE, align 8
  ret ptr %1
}

; Function Attrs: mustprogress nounwind uwtable
define linkonce_odr hidden noundef ptr @_ZN13CollectedHeap10named_heapI14ShenandoahHeapEEPT_NS_4NameE(i32 noundef %0) #1 comdat align 2 {
  %2 = alloca i32, align 4
  %3 = alloca ptr, align 8
  store i32 %0, ptr %2, align 4
  %4 = call noundef ptr @_ZN8Universe4heapEv()
  store ptr %4, ptr %3, align 8
  %5 = load ptr, ptr %3, align 8
  ret ptr %5
}

; Function Attrs: mustprogress nounwind uwtable
define linkonce_odr hidden noundef ptr @_ZNK14ShenandoahHeap15marking_contextEv(ptr noundef nonnull align 8 dereferenceable(2657) %0) #1 comdat align 2 {
  %2 = alloca ptr, align 8
  store ptr %0, ptr %2, align 8
  %3 = load ptr, ptr %2, align 8
  %4 = getelementptr inbounds %class.ShenandoahHeap, ptr %3, i32 0, i32 51
  %5 = load ptr, ptr %4, align 8
  ret ptr %5
}

; Function Attrs: mustprogress nounwind uwtable
define linkonce_odr hidden noundef ptr @_ZN14ShenandoahHeap4heapEv() #1 comdat align 2 {
  %1 = call noundef ptr @_ZN13CollectedHeap10named_heapI14ShenandoahHeapEEPT_NS_4NameE(i32 noundef 6)
  ret ptr %1
}

; Function Attrs: mustprogress nounwind uwtable
define linkonce_odr hidden void @_ZN10OopClosureC2Ev(ptr noundef nonnull align 8 dereferenceable(8) %0) unnamed_addr #1 comdat align 2 {
  %2 = alloca ptr, align 8
  store ptr %0, ptr %2, align 8
  %3 = load ptr, ptr %2, align 8
  store ptr getelementptr inbounds inrange(-16, 16) ({ [4 x ptr] }, ptr @_ZTV10OopClosure, i32 0, i32 0, i32 2), ptr %3, align 8
  ret void
}

; Function Attrs: mustprogress nounwind uwtable
define linkonce_odr hidden void @_ZN30ShenandoahInitMarkRootsClosureIL24ShenandoahGenerationType0EEC2EP6PaddedI25BufferedOverflowTaskQueueI18ShenandoahMarkTaskL8MEMFLAGS5ELj131072EELm128EE(ptr noundef nonnull align 8 dereferenceable(24) %0, ptr noundef %1) unnamed_addr #1 comdat align 2 {
  %3 = alloca ptr, align 8
  %4 = alloca ptr, align 8
  store ptr %0, ptr %3, align 8
  store ptr %1, ptr %4, align 8
  %5 = load ptr, ptr %3, align 8
  call void @_ZN10OopClosureC2Ev(ptr noundef nonnull align 8 dereferenceable(8) %5) #8
  store ptr getelementptr inbounds inrange(-16, 16) ({ [4 x ptr] }, ptr @_ZTV30ShenandoahInitMarkRootsClosureIL24ShenandoahGenerationType0EE, i32 0, i32 0, i32 2), ptr %5, align 8
  %6 = getelementptr inbounds %class.ShenandoahInitMarkRootsClosure, ptr %5, i32 0, i32 1
  %7 = load ptr, ptr %4, align 8
  store ptr %7, ptr %6, align 8
  %8 = getelementptr inbounds %class.ShenandoahInitMarkRootsClosure, ptr %5, i32 0, i32 2
  %9 = call noundef ptr @_ZN14ShenandoahHeap4heapEv()
  %10 = call noundef ptr @_ZNK14ShenandoahHeap15marking_contextEv(ptr noundef nonnull align 8 dereferenceable(2657) %9)
  store ptr %10, ptr %8, align 8
  ret void
}

; Function Attrs: mustprogress nounwind uwtable
define linkonce_odr hidden noundef ptr @_ZN19GenericTaskQueueSetI6PaddedI25BufferedOverflowTaskQueueI18ShenandoahMarkTaskL8MEMFLAGS5ELj131072EELm128EELS3_5EE5queueEj(ptr noundef nonnull align 8 dereferenceable(24) %0, i32 noundef %1) #1 comdat align 2 {
  %3 = alloca ptr, align 8
  %4 = alloca i32, align 4
  store ptr %0, ptr %3, align 8
  store i32 %1, ptr %4, align 4
  %5 = load ptr, ptr %3, align 8
  %6 = getelementptr inbounds %class.GenericTaskQueueSet, ptr %5, i32 0, i32 2
  %7 = load ptr, ptr %6, align 8
  %8 = load i32, ptr %4, align 4
  %9 = zext i32 %8 to i64
  %10 = getelementptr inbounds ptr, ptr %7, i64 %9
  %11 = load ptr, ptr %10, align 8
  ret ptr %11
}

; Function Attrs: mustprogress nounwind uwtable
define linkonce_odr hidden noundef ptr @_ZNK14ShenandoahMark11task_queuesEv(ptr noundef nonnull align 8 dereferenceable(8) %0) #1 comdat align 2 {
  %2 = alloca ptr, align 8
  store ptr %0, ptr %2, align 8
  %3 = load ptr, ptr %2, align 8
  %4 = getelementptr inbounds %class.ShenandoahMark, ptr %3, i32 0, i32 0
  %5 = load ptr, ptr %4, align 8
  ret ptr %5
}

; Function Attrs: mustprogress nounwind uwtable
define hidden void @_ZN17ShenandoahSTWMark10mark_rootsEj(ptr noundef nonnull align 8 dereferenceable(881) %0, i32 noundef %1) #1 align 2 {
  %3 = alloca ptr, align 8
  %4 = alloca i32, align 4
  %5 = alloca %class.ShenandoahInitMarkRootsClosure, align 8
  store ptr %0, ptr %3, align 8
  store i32 %1, ptr %4, align 4
  %6 = load ptr, ptr %3, align 8
  %7 = call noundef ptr @_ZNK14ShenandoahMark11task_queuesEv(ptr noundef nonnull align 8 dereferenceable(8) %6)
  %8 = load i32, ptr %4, align 4
  %9 = call noundef ptr @_ZN19GenericTaskQueueSetI6PaddedI25BufferedOverflowTaskQueueI18ShenandoahMarkTaskL8MEMFLAGS5ELj131072EELm128EELS3_5EE5queueEj(ptr noundef nonnull align 8 dereferenceable(24) %7, i32 noundef %8)
  call void @_ZN30ShenandoahInitMarkRootsClosureIL24ShenandoahGenerationType0EEC2EP6PaddedI25BufferedOverflowTaskQueueI18ShenandoahMarkTaskL8MEMFLAGS5ELj131072EELm128EE(ptr noundef nonnull align 8 dereferenceable(24) %5, ptr noundef %9)
  %10 = getelementptr inbounds %class.ShenandoahSTWMark, ptr %6, i32 0, i32 1
  %11 = load i32, ptr %4, align 4
  call void @_ZN24ShenandoahSTWRootScanner8roots_doI30ShenandoahInitMarkRootsClosureIL24ShenandoahGenerationType0EEEEvPT_j(ptr noundef nonnull align 8 dereferenceable(481) %10, ptr noundef %5, i32 noundef %11)
  ret void
}