; Function Attrs: mustprogress nounwind uwtable
define hidden void @_ZN17ShenandoahSTWMark10mark_rootsEj(ptr noundef nonnull align 8 dereferenceable(881) %0, i32 noundef %1) local_unnamed_addr #0 align 2 {
  %3 = alloca %class.ShenandoahInitMarkRootsClosure, align 8
  %4 = load ptr, ptr %0, align 8
  %5 = getelementptr inbounds i8, ptr %4, i64 16
  %6 = load ptr, ptr %5, align 8
  %7 = zext i32 %1 to i64
  %8 = getelementptr inbounds ptr, ptr %6, i64 %7
  %9 = load ptr, ptr %8, align 8
  store ptr getelementptr inbounds inrange(-16, 16) (i8, ptr @_ZTV30ShenandoahInitMarkRootsClosureIL24ShenandoahGenerationType0EE, i64 16), ptr %3, align 8
  %10 = getelementptr inbounds i8, ptr %3, i64 8
  store ptr %9, ptr %10, align 8
  %11 = getelementptr inbounds i8, ptr %3, i64 16
  %12 = load ptr, ptr @_ZN8Universe14_collectedHeapE, align 8
  %13 = getelementptr inbounds i8, ptr %12, i64 2248
  %14 = load ptr, ptr %13, align 8
  store ptr %14, ptr %11, align 8
  %15 = getelementptr inbounds i8, ptr %0, i64 8
  call void @_ZN24ShenandoahSTWRootScanner8roots_doI30ShenandoahInitMarkRootsClosureIL24ShenandoahGenerationType0EEEEvPT_j(ptr noundef nonnull align 8 dereferenceable(481) %15, ptr noundef nonnull %3, i32 noundef %1)
  ret void
}